target datalayout = "e-m:e-p270:32:32-p271:32:32-p272:64:64-i64:64-i128:128-f80:128-n8:16:32:64-S128"
target triple = "x86_64-pc-linux-gnu"

%struct.CommandQueue = type { ptr, ptr }
%struct.HelperCommand = type { i32, i8, i8, i8, ptr, %union.anon }
%union.anon = type { %struct.ReportEventCompositeCommand }
%struct.ReportEventCompositeCommand = type { i8, i32, [1 x %struct.CommandSingle] }
%struct.CommandSingle = type { i32, %union.anon.0 }
%union.anon.0 = type { %struct.EventCommandSingle }
%struct.EventCommandSingle = type { i8, i32, %struct.EventInfo }
%struct.EventInfo = type { i32, ptr, i8, ptr, ptr, i64, ptr, %union.anon.1 }
%union.anon.1 = type { %struct.anon.2 }
%struct.anon.2 = type { ptr, ptr, i8, %union.jvalue }
%union.jvalue = type { i64 }

@commandQueueLock = internal global ptr null, align 8
@commandQueue = internal global %struct.CommandQueue zeroinitializer, align 8
@commandCompleteLock = internal global ptr null, align 8
@currentQueueSize = internal global i32 0, align 4
@enqueueCommand.vmDeathReported = internal global i8 0, align 1
@maxQueueSize = internal global i32 51200, align 4
@.str.32 = private unnamed_addr constant [48 x i8] c"enqueueCommand(): HelperCommand being processed\00", align 1
@.str.33 = private unnamed_addr constant [37 x i8] c"enqueueCommand(): HelperCommand wait\00", align 1

; Function Attrs: nounwind uwtable
define internal void @freeCommand(ptr noundef %0) #0 {
  %2 = alloca ptr, align 8
  store ptr %0, ptr %2, align 8
  %3 = load ptr, ptr %2, align 8
  %4 = icmp eq ptr %3, null
  br i1 %4, label %5, label %6

5:                                                ; preds = %1
  br label %8

6:                                                ; preds = %1
  %7 = load ptr, ptr %2, align 8
  call void @jvmtiDeallocate(ptr noundef %7)
  br label %8

8:                                                ; preds = %6, %5
  ret void
}

; Function Attrs: nounwind uwtable
define internal i32 @commandSize(ptr noundef %0) #0 {
  %2 = alloca ptr, align 8
  %3 = alloca i32, align 4
  store ptr %0, ptr %2, align 8
  store i32 128, ptr %3, align 4
  %4 = load ptr, ptr %2, align 8
  %5 = getelementptr inbounds %struct.HelperCommand, ptr %4, i32 0, i32 0
  %6 = load i32, ptr %5, align 8
  %7 = icmp eq i32 %6, 1
  br i1 %7, label %8, label %17

8:                                                ; preds = %1
  %9 = load ptr, ptr %2, align 8
  %10 = getelementptr inbounds %struct.HelperCommand, ptr %9, i32 0, i32 5
  %11 = getelementptr inbounds %struct.ReportEventCompositeCommand, ptr %10, i32 0, i32 1
  %12 = load i32, ptr %11, align 4
  %13 = sub nsw i32 %12, 1
  %14 = mul nsw i32 104, %13
  %15 = load i32, ptr %3, align 4
  %16 = add nsw i32 %15, %14
  store i32 %16, ptr %3, align 4
  br label %17

17:                                               ; preds = %8, %1
  %18 = load i32, ptr %3, align 4
  ret i32 %18
}

; Function Attrs: nounwind uwtable
define internal void @enqueueCommand(ptr noundef %0, i8 noundef zeroext %1, i8 noundef zeroext %2) #0 {
  %4 = alloca ptr, align 8
  %5 = alloca i8, align 1
  %6 = alloca i8, align 1
  %7 = alloca ptr, align 8
  %8 = alloca i32, align 4
  store ptr %0, ptr %4, align 8
  store i8 %1, ptr %5, align 1
  store i8 %2, ptr %6, align 1
  store ptr @commandQueue, ptr %7, align 8
  %9 = load ptr, ptr %4, align 8
  %10 = call i32 @commandSize(ptr noundef %9)
  store i32 %10, ptr %8, align 4
  %11 = load ptr, ptr %4, align 8
  %12 = getelementptr inbounds %struct.HelperCommand, ptr %11, i32 0, i32 1
  store i8 0, ptr %12, align 4
  %13 = load i8, ptr %5, align 1
  %14 = load ptr, ptr %4, align 8
  %15 = getelementptr inbounds %struct.HelperCommand, ptr %14, i32 0, i32 2
  store i8 %13, ptr %15, align 1
  %16 = load ptr, ptr %4, align 8
  %17 = getelementptr inbounds %struct.HelperCommand, ptr %16, i32 0, i32 4
  store ptr null, ptr %17, align 8
  %18 = load ptr, ptr @commandQueueLock, align 8
  call void @debugMonitorEnter(ptr noundef %18)
  br label %19

19:                                               ; preds = %25, %3
  %20 = load i32, ptr %8, align 4
  %21 = load i32, ptr @currentQueueSize, align 4
  %22 = add nsw i32 %20, %21
  %23 = load i32, ptr @maxQueueSize, align 4
  %24 = icmp sgt i32 %22, %23
  br i1 %24, label %25, label %27

25:                                               ; preds = %19
  %26 = load ptr, ptr @commandQueueLock, align 8
  call void @debugMonitorWait(ptr noundef %26)
  br label %19, !llvm.loop !6

27:                                               ; preds = %19
  call void @log_debugee_location(ptr noundef @.str.32, ptr noundef null, ptr noundef null, i64 noundef 0)
  %28 = load i8, ptr @enqueueCommand.vmDeathReported, align 1
  %29 = icmp ne i8 %28, 0
  br i1 %29, label %30, label %31

30:                                               ; preds = %27
  store i8 0, ptr %5, align 1
  br label %57

31:                                               ; preds = %27
  %32 = load i32, ptr %8, align 4
  %33 = load i32, ptr @currentQueueSize, align 4
  %34 = add nsw i32 %33, %32
  store i32 %34, ptr @currentQueueSize, align 4
  %35 = load ptr, ptr %7, align 8
  %36 = getelementptr inbounds %struct.CommandQueue, ptr %35, i32 0, i32 0
  %37 = load ptr, ptr %36, align 8
  %38 = icmp eq ptr %37, null
  br i1 %38, label %39, label %43

39:                                               ; preds = %31
  %40 = load ptr, ptr %4, align 8
  %41 = load ptr, ptr %7, align 8
  %42 = getelementptr inbounds %struct.CommandQueue, ptr %41, i32 0, i32 0
  store ptr %40, ptr %42, align 8
  br label %49

43:                                               ; preds = %31
  %44 = load ptr, ptr %4, align 8
  %45 = load ptr, ptr %7, align 8
  %46 = getelementptr inbounds %struct.CommandQueue, ptr %45, i32 0, i32 1
  %47 = load ptr, ptr %46, align 8
  %48 = getelementptr inbounds %struct.HelperCommand, ptr %47, i32 0, i32 4
  store ptr %44, ptr %48, align 8
  br label %49

49:                                               ; preds = %43, %39
  %50 = load ptr, ptr %4, align 8
  %51 = load ptr, ptr %7, align 8
  %52 = getelementptr inbounds %struct.CommandQueue, ptr %51, i32 0, i32 1
  store ptr %50, ptr %52, align 8
  %53 = load i8, ptr %6, align 1
  %54 = icmp ne i8 %53, 0
  br i1 %54, label %55, label %56

55:                                               ; preds = %49
  store i8 1, ptr @enqueueCommand.vmDeathReported, align 1
  br label %56

56:                                               ; preds = %55, %49
  br label %57

57:                                               ; preds = %56, %30
  %58 = load ptr, ptr @commandQueueLock, align 8
  call void @debugMonitorNotifyAll(ptr noundef %58)
  %59 = load ptr, ptr @commandQueueLock, align 8
  call void @debugMonitorExit(ptr noundef %59)
  %60 = load i8, ptr %5, align 1
  %61 = icmp ne i8 %60, 0
  br i1 %61, label %62, label %75

62:                                               ; preds = %57
  %63 = load ptr, ptr @commandCompleteLock, align 8
  call void @debugMonitorEnter(ptr noundef %63)
  br label %64

64:                                               ; preds = %70, %62
  %65 = load ptr, ptr %4, align 8
  %66 = getelementptr inbounds %struct.HelperCommand, ptr %65, i32 0, i32 1
  %67 = load i8, ptr %66, align 4
  %68 = icmp ne i8 %67, 0
  %69 = xor i1 %68, true
  br i1 %69, label %70, label %72

70:                                               ; preds = %64
  call void @log_debugee_location(ptr noundef @.str.33, ptr noundef null, ptr noundef null, i64 noundef 0)
  %71 = load ptr, ptr @commandCompleteLock, align 8
  call void @debugMonitorWait(ptr noundef %71)
  br label %64, !llvm.loop !8

72:                                               ; preds = %64
  %73 = load ptr, ptr %4, align 8
  call void @freeCommand(ptr noundef %73)
  %74 = load ptr, ptr @commandCompleteLock, align 8
  call void @debugMonitorExit(ptr noundef %74)
  br label %75

75:                                               ; preds = %72, %57
  ret void
}