; Function Attrs: nounwind uwtable
define internal fastcc void @enqueueCommand(ptr noundef %0, i8 noundef zeroext %1, i8 noundef zeroext %2) unnamed_addr #0 {
  %4 = load i32, ptr %0, align 8
  %5 = icmp eq i32 %4, 1
  br i1 %5, label %6, label %commandSize.exit

6:                                                ; preds = %3
  %7 = getelementptr inbounds i8, ptr %0, i64 20
  %8 = load i32, ptr %7, align 4
  %9 = mul i32 %8, 104
  %10 = add i32 %9, 24
  br label %commandSize.exit

commandSize.exit:                                 ; preds = %3, %6
  %.0.i = phi i32 [ %10, %6 ], [ 128, %3 ]
  %11 = getelementptr inbounds i8, ptr %0, i64 4
  store i8 0, ptr %11, align 4
  %12 = getelementptr inbounds i8, ptr %0, i64 5
  store i8 %1, ptr %12, align 1
  %13 = getelementptr inbounds i8, ptr %0, i64 8
  store ptr null, ptr %13, align 8
  %14 = load ptr, ptr @commandQueueLock, align 8
  tail call void @debugMonitorEnter(ptr noundef %14) #9
  %15 = load i32, ptr @currentQueueSize, align 4
  %16 = add nsw i32 %15, %.0.i
  %17 = icmp sgt i32 %16, 51200
  br i1 %17, label %.lr.ph, label %._crit_edge

.lr.ph:                                           ; preds = %commandSize.exit, %.lr.ph
  %18 = load ptr, ptr @commandQueueLock, align 8
  tail call void @debugMonitorWait(ptr noundef %18) #9
  %19 = load i32, ptr @currentQueueSize, align 4
  %20 = add nsw i32 %19, %.0.i
  %21 = icmp sgt i32 %20, 51200
  br i1 %21, label %.lr.ph, label %._crit_edge, !llvm.loop !12

._crit_edge:                                      ; preds = %.lr.ph, %commandSize.exit
  tail call void @log_debugee_location(ptr noundef nonnull @.str.32, ptr noundef null, ptr noundef null, i64 noundef 0) #9
  %.b = load i1, ptr @enqueueCommand.vmDeathReported, align 1
  br i1 %.b, label %30, label %22

22:                                               ; preds = %._crit_edge
  %23 = load i32, ptr @currentQueueSize, align 4
  %24 = add nsw i32 %23, %.0.i
  store i32 %24, ptr @currentQueueSize, align 4
  %25 = load ptr, ptr @commandQueue.0, align 8
  %26 = icmp eq ptr %25, null
  %27 = load ptr, ptr @commandQueue.1, align 8
  %28 = getelementptr inbounds i8, ptr %27, i64 8
  %.sink = select i1 %26, ptr @commandQueue.0, ptr %28
  store ptr %0, ptr %.sink, align 8
  store ptr %0, ptr @commandQueue.1, align 8
  %.not = icmp eq i8 %2, 0
  br i1 %.not, label %30, label %29

29:                                               ; preds = %22
  store i1 true, ptr @enqueueCommand.vmDeathReported, align 1
  br label %30

30:                                               ; preds = %._crit_edge, %22, %29
  %.0 = phi i8 [ %1, %29 ], [ %1, %22 ], [ 0, %._crit_edge ]
  %31 = load ptr, ptr @commandQueueLock, align 8
  tail call void @debugMonitorNotifyAll(ptr noundef %31) #9
  %32 = load ptr, ptr @commandQueueLock, align 8
  tail call void @debugMonitorExit(ptr noundef %32) #9
  %.not17 = icmp eq i8 %.0, 0
  br i1 %.not17, label %39, label %33

33:                                               ; preds = %30
  %34 = load ptr, ptr @commandCompleteLock, align 8
  tail call void @debugMonitorEnter(ptr noundef %34) #9
  %35 = load i8, ptr %11, align 4
  %.not1819 = icmp eq i8 %35, 0
  br i1 %.not1819, label %.lr.ph21, label %freeCommand.exit

.lr.ph21:                                         ; preds = %33, %.lr.ph21
  tail call void @log_debugee_location(ptr noundef nonnull @.str.33, ptr noundef null, ptr noundef null, i64 noundef 0) #9
  %36 = load ptr, ptr @commandCompleteLock, align 8
  tail call void @debugMonitorWait(ptr noundef %36) #9
  %37 = load i8, ptr %11, align 4
  %.not18 = icmp eq i8 %37, 0
  br i1 %.not18, label %.lr.ph21, label %freeCommand.exit, !llvm.loop !13

freeCommand.exit:                                 ; preds = %.lr.ph21, %33
  tail call void @jvmtiDeallocate(ptr noundef nonnull %0) #9
  %38 = load ptr, ptr @commandCompleteLock, align 8
  tail call void @debugMonitorExit(ptr noundef %38) #9
  br label %39

39:                                               ; preds = %freeCommand.exit, %30
  ret void
}